target datalayout = "e-m:e-p270:32:32-p271:32:32-p272:64:64-i64:64-i128:128-f80:128-n8:16:32:64-S128"
target triple = "x86_64-pc-linux-gnu"

%class.RSEncode = type <{ %class.RSCoder, [4 x i8], ptr, ptr, i32, i32, i32, i32, i64, ptr, i32, [4 x i8] }>
%class.RSCoder = type <{ [512 x i32], [256 x i32], [1024 x i32], [256 x i32], i32, [256 x i32], i32, [512 x i32], i8, [3 x i8] }>

; Function Attrs: mustprogress uwtable
define void @_ZN8RSEncode9DecodeBufEv(ptr noundef nonnull align 8 dereferenceable(11332) %0) #0 align 2 {
  %2 = alloca ptr, align 8
  %3 = alloca i32, align 4
  %4 = alloca [256 x i8], align 16
  %5 = alloca i32, align 4
  %6 = alloca i32, align 4
  store ptr %0, ptr %2, align 8
  %7 = load ptr, ptr %2, align 8
  %8 = getelementptr inbounds %class.RSEncode, ptr %7, i32 0, i32 4
  %9 = load i32, ptr %8, align 8
  store i32 %9, ptr %3, align 4
  br label %10

10:                                               ; preds = %85, %1
  %11 = load i32, ptr %3, align 4
  %12 = getelementptr inbounds %class.RSEncode, ptr %7, i32 0, i32 5
  %13 = load i32, ptr %12, align 4
  %14 = icmp slt i32 %11, %13
  br i1 %14, label %15, label %88

15:                                               ; preds = %10
  store i32 0, ptr %5, align 4
  br label %16

16:                                               ; preds = %37, %15
  %17 = load i32, ptr %5, align 4
  %18 = getelementptr inbounds %class.RSEncode, ptr %7, i32 0, i32 6
  %19 = load i32, ptr %18, align 8
  %20 = icmp slt i32 %17, %19
  br i1 %20, label %21, label %40

21:                                               ; preds = %16
  %22 = getelementptr inbounds %class.RSEncode, ptr %7, i32 0, i32 2
  %23 = load ptr, ptr %22, align 8
  %24 = load i32, ptr %5, align 4
  %25 = sext i32 %24 to i64
  %26 = getelementptr inbounds %class.RSEncode, ptr %7, i32 0, i32 8
  %27 = load i64, ptr %26, align 8
  %28 = mul i64 %25, %27
  %29 = load i32, ptr %3, align 4
  %30 = sext i32 %29 to i64
  %31 = add i64 %28, %30
  %32 = getelementptr inbounds i8, ptr %23, i64 %31
  %33 = load i8, ptr %32, align 1
  %34 = load i32, ptr %5, align 4
  %35 = sext i32 %34 to i64
  %36 = getelementptr inbounds [256 x i8], ptr %4, i64 0, i64 %35
  store i8 %33, ptr %36, align 1
  br label %37

37:                                               ; preds = %21
  %38 = load i32, ptr %5, align 4
  %39 = add nsw i32 %38, 1
  store i32 %39, ptr %5, align 4
  br label %16, !llvm.loop !29

40:                                               ; preds = %16
  %41 = getelementptr inbounds %class.RSEncode, ptr %7, i32 0, i32 0
  %42 = getelementptr inbounds [256 x i8], ptr %4, i64 0, i64 0
  %43 = getelementptr inbounds %class.RSEncode, ptr %7, i32 0, i32 6
  %44 = load i32, ptr %43, align 8
  %45 = getelementptr inbounds %class.RSEncode, ptr %7, i32 0, i32 9
  %46 = load ptr, ptr %45, align 8
  %47 = getelementptr inbounds %class.RSEncode, ptr %7, i32 0, i32 10
  %48 = load i32, ptr %47, align 8
  %49 = call noundef zeroext i1 @_ZN7RSCoder6DecodeEPhiPii(ptr noundef nonnull align 4 dereferenceable(11273) %41, ptr noundef %42, i32 noundef %44, ptr noundef %46, i32 noundef %48)
  store i32 0, ptr %6, align 4
  br label %50

50:                                               ; preds = %81, %40
  %51 = load i32, ptr %6, align 4
  %52 = getelementptr inbounds %class.RSEncode, ptr %7, i32 0, i32 10
  %53 = load i32, ptr %52, align 8
  %54 = icmp slt i32 %51, %53
  br i1 %54, label %55, label %84

55:                                               ; preds = %50
  %56 = getelementptr inbounds %class.RSEncode, ptr %7, i32 0, i32 9
  %57 = load ptr, ptr %56, align 8
  %58 = load i32, ptr %6, align 4
  %59 = sext i32 %58 to i64
  %60 = getelementptr inbounds i32, ptr %57, i64 %59
  %61 = load i32, ptr %60, align 4
  %62 = sext i32 %61 to i64
  %63 = getelementptr inbounds [256 x i8], ptr %4, i64 0, i64 %62
  %64 = load i8, ptr %63, align 1
  %65 = getelementptr inbounds %class.RSEncode, ptr %7, i32 0, i32 2
  %66 = load ptr, ptr %65, align 8
  %67 = getelementptr inbounds %class.RSEncode, ptr %7, i32 0, i32 9
  %68 = load ptr, ptr %67, align 8
  %69 = load i32, ptr %6, align 4
  %70 = sext i32 %69 to i64
  %71 = getelementptr inbounds i32, ptr %68, i64 %70
  %72 = load i32, ptr %71, align 4
  %73 = sext i32 %72 to i64
  %74 = getelementptr inbounds %class.RSEncode, ptr %7, i32 0, i32 8
  %75 = load i64, ptr %74, align 8
  %76 = mul i64 %73, %75
  %77 = load i32, ptr %3, align 4
  %78 = sext i32 %77 to i64
  %79 = add i64 %76, %78
  %80 = getelementptr inbounds i8, ptr %66, i64 %79
  store i8 %64, ptr %80, align 1
  br label %81

81:                                               ; preds = %55
  %82 = load i32, ptr %6, align 4
  %83 = add nsw i32 %82, 1
  store i32 %83, ptr %6, align 4
  br label %50, !llvm.loop !30

84:                                               ; preds = %50
  br label %85

85:                                               ; preds = %84
  %86 = load i32, ptr %3, align 4
  %87 = add nsw i32 %86, 1
  store i32 %87, ptr %3, align 4
  br label %10, !llvm.loop !31

88:                                               ; preds = %10
  ret void
}