; Function Attrs: mustprogress uwtable
define void @_ZN8RSEncode9DecodeBufEv(ptr noundef nonnull align 8 dereferenceable(11332) %0) local_unnamed_addr #0 align 2 {
  %2 = alloca [256 x i8], align 16
  %3 = getelementptr inbounds i8, ptr %0, i64 11296
  %4 = load i32, ptr %3, align 8
  %5 = getelementptr inbounds i8, ptr %0, i64 11300
  %6 = load i32, ptr %5, align 4
  %7 = icmp slt i32 %4, %6
  br i1 %7, label %.preheader.lr.ph, label %._crit_edge21

.preheader.lr.ph:                                 ; preds = %1
  %8 = getelementptr inbounds i8, ptr %0, i64 11304
  %9 = getelementptr inbounds i8, ptr %0, i64 11280
  %10 = getelementptr inbounds i8, ptr %0, i64 11312
  %11 = getelementptr inbounds i8, ptr %0, i64 11320
  %12 = getelementptr inbounds i8, ptr %0, i64 11328
  %13 = sext i32 %4 to i64
  br label %.preheader

.preheader:                                       ; preds = %.preheader.lr.ph, %._crit_edge19
  %indvars.iv26 = phi i64 [ %13, %.preheader.lr.ph ], [ %indvars.iv.next27, %._crit_edge19 ]
  %14 = load i32, ptr %8, align 8
  %15 = icmp sgt i32 %14, 0
  br i1 %15, label %.lr.ph, label %._crit_edge

.lr.ph:                                           ; preds = %.preheader
  %16 = load ptr, ptr %9, align 8
  %17 = load i64, ptr %10, align 8
  %invariant.gep = getelementptr i8, ptr %16, i64 %indvars.iv26
  %wide.trip.count = zext nneg i32 %14 to i64
  br label %18

18:                                               ; preds = %.lr.ph, %18
  %indvars.iv = phi i64 [ 0, %.lr.ph ], [ %indvars.iv.next, %18 ]
  %19 = mul i64 %17, %indvars.iv
  %gep = getelementptr i8, ptr %invariant.gep, i64 %19
  %20 = load i8, ptr %gep, align 1
  %21 = getelementptr inbounds [256 x i8], ptr %2, i64 0, i64 %indvars.iv
  store i8 %20, ptr %21, align 1
  %indvars.iv.next = add nuw nsw i64 %indvars.iv, 1
  %exitcond.not = icmp eq i64 %indvars.iv.next, %wide.trip.count
  br i1 %exitcond.not, label %._crit_edge, label %18, !llvm.loop !23

._crit_edge:                                      ; preds = %18, %.preheader
  %22 = load ptr, ptr %11, align 8
  %23 = load i32, ptr %12, align 8
  %24 = call noundef zeroext i1 @_ZN7RSCoder6DecodeEPhiPii(ptr noundef nonnull align 4 dereferenceable(11273) %0, ptr noundef nonnull %2, i32 noundef %14, ptr noundef %22, i32 noundef %23)
  %25 = load i32, ptr %12, align 8
  %26 = icmp sgt i32 %25, 0
  br i1 %26, label %.lr.ph18, label %._crit_edge19

.lr.ph18:                                         ; preds = %._crit_edge, %.lr.ph18
  %indvars.iv23 = phi i64 [ %indvars.iv.next24, %.lr.ph18 ], [ 0, %._crit_edge ]
  %27 = load ptr, ptr %11, align 8
  %28 = getelementptr inbounds i32, ptr %27, i64 %indvars.iv23
  %29 = load i32, ptr %28, align 4
  %30 = sext i32 %29 to i64
  %31 = getelementptr inbounds [256 x i8], ptr %2, i64 0, i64 %30
  %32 = load i8, ptr %31, align 1
  %33 = load ptr, ptr %9, align 8
  %34 = load i64, ptr %10, align 8
  %35 = mul i64 %34, %30
  %36 = getelementptr i8, ptr %33, i64 %35
  %37 = getelementptr i8, ptr %36, i64 %indvars.iv26
  store i8 %32, ptr %37, align 1
  %indvars.iv.next24 = add nuw nsw i64 %indvars.iv23, 1
  %38 = load i32, ptr %12, align 8
  %39 = sext i32 %38 to i64
  %40 = icmp slt i64 %indvars.iv.next24, %39
  br i1 %40, label %.lr.ph18, label %._crit_edge19, !llvm.loop !24

._crit_edge19:                                    ; preds = %.lr.ph18, %._crit_edge
  %indvars.iv.next27 = add nsw i64 %indvars.iv26, 1
  %41 = load i32, ptr %5, align 4
  %42 = sext i32 %41 to i64
  %43 = icmp slt i64 %indvars.iv.next27, %42
  br i1 %43, label %.preheader, label %._crit_edge21, !llvm.loop !25

._crit_edge21:                                    ; preds = %._crit_edge19, %1
  ret void
}